target datalayout = "e-m:e-p270:32:32-p271:32:32-p272:64:64-i64:64-i128:128-f80:128-n8:16:32:64-S128"
target triple = "x86_64-pc-linux-gnu"

%struct.WOLFSSL = type <{ ptr, ptr, ptr, ptr, [48 x i8], [48 x i8], ptr, ptr, ptr, ptr, ptr, ptr, ptr, ptr, ptr, ptr, ptr, ptr, ptr, i32, [4 x i8], %struct.WOLFSSL_CIPHER, ptr, %struct.Ciphers, %struct.Ciphers, [8 x i8], %struct.Buffers, ptr, ptr, %struct.WOLFSSL_ALERT_HISTORY, %struct.WOLFSSL_ALERT, i32, i32, i32, i32, i32, i32, i32, i16, [2 x i8], i32, i8, %struct.RecordLayerHeader, %struct.MsgsReceived, %struct.ProtocolVersion, %struct.ProtocolVersion, %struct.CipherSpecs, [2 x i8], %struct.Keys, %struct.Options, ptr, i8, i8, i16, [10 x i16], i8, i8, i16, i16, [38 x i8], i32, i32, [4 x i8], ptr, i8, i8, [6 x i8], ptr, ptr, i16, i8, i8, i32, i8, [3 x i8], i32, %struct.OneTimeAuth, ptr }>
%struct.WOLFSSL_CIPHER = type { i8, i8, ptr }
%struct.Ciphers = type { ptr, ptr, ptr, ptr, i8, i8 }
%struct.Buffers = type { %struct.bufferStatic, %struct.bufferStatic, %struct.WOLFSSL_BUFFER_INFO, %struct.WOLFSSL_BUFFER_INFO, %struct.WOLFSSL_BUFFER_INFO, %struct.WOLFSSL_BUFFER_INFO, i32, i32, i8, i8, i8, i8, %struct.WOLFSSL_BUFFER_INFO, %struct.WOLFSSL_BUFFER_INFO, %struct.WOLFSSL_BUFFER_INFO, %struct.WOLFSSL_BUFFER_INFO, ptr, ptr, ptr, i8, i8, i32, i32, ptr, i32, [1 x ptr] }
%struct.bufferStatic = type { [5 x i8], ptr, i32, i32, i32, i8, i8 }
%struct.WOLFSSL_BUFFER_INFO = type { ptr, i32 }
%struct.WOLFSSL_ALERT_HISTORY = type { %struct.WOLFSSL_ALERT, %struct.WOLFSSL_ALERT }
%struct.WOLFSSL_ALERT = type { i32, i32 }
%struct.RecordLayerHeader = type { i8, i8, i8, [2 x i8] }
%struct.MsgsReceived = type { i32 }
%struct.ProtocolVersion = type { i8, i8 }
%struct.CipherSpecs = type { i16, i16, i16, i16, i8, i8, i8, i8, i8, i8, i8, i8 }
%struct.Keys = type { [64 x i8], [64 x i8], [32 x i8], [32 x i8], [16 x i8], [16 x i8], [8 x i8], [12 x i8], [12 x i8], i32, i32, i32, i32, i32, i32, i8, i8, i8, i8 }
%struct.Options = type { i64, i64, i8, i8, i8, i8, i8, i8, i8, i8, i8, i8, i8, i8, i8, i8, i8, i8, i8, i8, i8, i8, i8, i16, i16, i16, i16, i16, i8 }
%struct.OneTimeAuth = type { ptr, i8 }
%struct.HS_Hashes = type { %struct.Hashes, %struct.Hashes, %struct.wc_Sha, %struct.wc_Md5, [8 x i8], %struct.wc_Sha256, %struct.wc_Sha512, %struct.wc_Sha512 }
%struct.Hashes = type { [16 x i8], [20 x i8], [32 x i8], [48 x i8], [64 x i8] }
%struct.wc_Sha = type { i32, i32, i32, [16 x i32], [5 x i32], ptr }
%struct.wc_Md5 = type { i32, i32, i32, [16 x i32], [4 x i32], ptr }
%struct.wc_Sha256 = type { [8 x i32], [16 x i32], i32, i32, i32, ptr, [8 x i8] }
%struct.wc_Sha512 = type { [8 x i64], [16 x i64], i32, i64, i64, ptr }
%struct.Hmac = type { %union.wc_Hashes, [36 x i32], [36 x i32], [16 x i32], ptr, i8, i8 }
%union.wc_Hashes = type { %struct.wc_Sha3 }
%struct.wc_Sha3 = type { [25 x i64], [200 x i8], i8, ptr }

; Function Attrs: nounwind uwtable
define internal i32 @BuildTls13HandshakeHmac(ptr noundef %0, ptr noundef %1, ptr noundef %2, ptr noundef %3) #0 {
  %5 = alloca i32, align 4
  %6 = alloca ptr, align 8
  %7 = alloca ptr, align 8
  %8 = alloca ptr, align 8
  %9 = alloca ptr, align 8
  %10 = alloca [1 x %struct.Hmac], align 16
  %11 = alloca i32, align 4
  %12 = alloca i32, align 4
  %13 = alloca i32, align 4
  %14 = alloca i32, align 4
  store ptr %0, ptr %6, align 8, !tbaa !3
  store ptr %1, ptr %7, align 8, !tbaa !8
  store ptr %2, ptr %8, align 8, !tbaa !8
  store ptr %3, ptr %9, align 8, !tbaa !125
  call void @llvm.lifetime.start.p0(i64 784, ptr %10) #8
  call void @llvm.lifetime.start.p0(i64 4, ptr %11) #8
  store i32 6, ptr %11, align 4, !tbaa !10
  call void @llvm.lifetime.start.p0(i64 4, ptr %12) #8
  store i32 32, ptr %12, align 4, !tbaa !10
  call void @llvm.lifetime.start.p0(i64 4, ptr %13) #8
  store i32 -173, ptr %13, align 4, !tbaa !10
  %15 = load ptr, ptr %6, align 8, !tbaa !3
  %16 = icmp eq ptr %15, null
  br i1 %16, label %23, label %17

17:                                               ; preds = %4
  %18 = load ptr, ptr %7, align 8, !tbaa !8
  %19 = icmp eq ptr %18, null
  br i1 %19, label %23, label %20

20:                                               ; preds = %17
  %21 = load ptr, ptr %8, align 8, !tbaa !8
  %22 = icmp eq ptr %21, null
  br i1 %22, label %23, label %24

23:                                               ; preds = %20, %17, %4
  store i32 -173, ptr %5, align 4
  store i32 1, ptr %14, align 4
  br label %95

24:                                               ; preds = %20
  %25 = load ptr, ptr %6, align 8, !tbaa !3
  %26 = getelementptr inbounds nuw %struct.WOLFSSL, ptr %25, i32 0, i32 46
  %27 = getelementptr inbounds nuw %struct.CipherSpecs, ptr %26, i32 0, i32 6
  %28 = load i8, ptr %27, align 2, !tbaa !49
  %29 = zext i8 %28 to i32
  switch i32 %29, label %44 [
    i32 4, label %30
    i32 5, label %37
  ]

30:                                               ; preds = %24
  store i32 6, ptr %11, align 4, !tbaa !10
  store i32 32, ptr %12, align 4, !tbaa !10
  %31 = load ptr, ptr %6, align 8, !tbaa !3
  %32 = getelementptr inbounds nuw %struct.WOLFSSL, ptr %31, i32 0, i32 6
  %33 = load ptr, ptr %32, align 16, !tbaa !12
  %34 = getelementptr inbounds nuw %struct.HS_Hashes, ptr %33, i32 0, i32 5
  %35 = load ptr, ptr %8, align 8, !tbaa !8
  %36 = call i32 @wc_Sha256GetHash(ptr noundef %34, ptr noundef %35)
  store i32 %36, ptr %13, align 4, !tbaa !10
  br label %45

37:                                               ; preds = %24
  store i32 7, ptr %11, align 4, !tbaa !10
  store i32 48, ptr %12, align 4, !tbaa !10
  %38 = load ptr, ptr %6, align 8, !tbaa !3
  %39 = getelementptr inbounds nuw %struct.WOLFSSL, ptr %38, i32 0, i32 6
  %40 = load ptr, ptr %39, align 16, !tbaa !12
  %41 = getelementptr inbounds nuw %struct.HS_Hashes, ptr %40, i32 0, i32 6
  %42 = load ptr, ptr %8, align 8, !tbaa !8
  %43 = call i32 @wc_Sha384GetHash(ptr noundef %41, ptr noundef %42)
  store i32 %43, ptr %13, align 4, !tbaa !10
  br label %45

44:                                               ; preds = %24
  store i32 -173, ptr %13, align 4, !tbaa !10
  br label %45

45:                                               ; preds = %44, %37, %30
  %46 = load i32, ptr %13, align 4, !tbaa !10
  %47 = icmp ne i32 %46, 0
  br i1 %47, label %48, label %50

48:                                               ; preds = %45
  %49 = load i32, ptr %13, align 4, !tbaa !10
  store i32 %49, ptr %5, align 4
  store i32 1, ptr %14, align 4
  br label %95

50:                                               ; preds = %45
  %51 = getelementptr inbounds [1 x %struct.Hmac], ptr %10, i64 0, i64 0
  %52 = load ptr, ptr %6, align 8, !tbaa !3
  %53 = getelementptr inbounds nuw %struct.WOLFSSL, ptr %52, i32 0, i32 12
  %54 = load ptr, ptr %53, align 16, !tbaa !46
  %55 = load ptr, ptr %6, align 8, !tbaa !3
  %56 = getelementptr inbounds nuw %struct.WOLFSSL, ptr %55, i32 0, i32 75
  %57 = load i32, ptr %56, align 4, !tbaa !47
  %58 = call i32 @wc_HmacInit(ptr noundef %51, ptr noundef %54, i32 noundef %57)
  store i32 %58, ptr %13, align 4, !tbaa !10
  %59 = load i32, ptr %13, align 4, !tbaa !10
  %60 = icmp eq i32 %59, 0
  br i1 %60, label %61, label %87

61:                                               ; preds = %50
  %62 = getelementptr inbounds [1 x %struct.Hmac], ptr %10, i64 0, i64 0
  %63 = load i32, ptr %11, align 4, !tbaa !10
  %64 = load ptr, ptr %7, align 8, !tbaa !8
  %65 = load ptr, ptr %6, align 8, !tbaa !3
  %66 = getelementptr inbounds nuw %struct.WOLFSSL, ptr %65, i32 0, i32 46
  %67 = getelementptr inbounds nuw %struct.CipherSpecs, ptr %66, i32 0, i32 9
  %68 = load i8, ptr %67, align 1, !tbaa !52
  %69 = zext i8 %68 to i32
  %70 = call i32 @wc_HmacSetKey(ptr noundef %62, i32 noundef %63, ptr noundef %64, i32 noundef %69)
  store i32 %70, ptr %13, align 4, !tbaa !10
  %71 = load i32, ptr %13, align 4, !tbaa !10
  %72 = icmp eq i32 %71, 0
  br i1 %72, label %73, label %78

73:                                               ; preds = %61
  %74 = getelementptr inbounds [1 x %struct.Hmac], ptr %10, i64 0, i64 0
  %75 = load ptr, ptr %8, align 8, !tbaa !8
  %76 = load i32, ptr %12, align 4, !tbaa !10
  %77 = call i32 @wc_HmacUpdate(ptr noundef %74, ptr noundef %75, i32 noundef %76)
  store i32 %77, ptr %13, align 4, !tbaa !10
  br label %78

78:                                               ; preds = %73, %61
  %79 = load i32, ptr %13, align 4, !tbaa !10
  %80 = icmp eq i32 %79, 0
  br i1 %80, label %81, label %85

81:                                               ; preds = %78
  %82 = getelementptr inbounds [1 x %struct.Hmac], ptr %10, i64 0, i64 0
  %83 = load ptr, ptr %8, align 8, !tbaa !8
  %84 = call i32 @wc_HmacFinal(ptr noundef %82, ptr noundef %83)
  store i32 %84, ptr %13, align 4, !tbaa !10
  br label %85

85:                                               ; preds = %81, %78
  %86 = getelementptr inbounds [1 x %struct.Hmac], ptr %10, i64 0, i64 0
  call void @wc_HmacFree(ptr noundef %86)
  br label %87

87:                                               ; preds = %85, %50
  %88 = load ptr, ptr %9, align 8, !tbaa !125
  %89 = icmp ne ptr %88, null
  br i1 %89, label %90, label %93

90:                                               ; preds = %87
  %91 = load i32, ptr %12, align 4, !tbaa !10
  %92 = load ptr, ptr %9, align 8, !tbaa !125
  store i32 %91, ptr %92, align 4, !tbaa !10
  br label %93

93:                                               ; preds = %90, %87
  %94 = load i32, ptr %13, align 4, !tbaa !10
  store i32 %94, ptr %5, align 4
  store i32 1, ptr %14, align 4
  br label %95

95:                                               ; preds = %93, %48, %23
  call void @llvm.lifetime.end.p0(i64 4, ptr %13) #8
  call void @llvm.lifetime.end.p0(i64 4, ptr %12) #8
  call void @llvm.lifetime.end.p0(i64 4, ptr %11) #8
  call void @llvm.lifetime.end.p0(i64 784, ptr %10) #8
  %96 = load i32, ptr %5, align 4
  ret i32 %96
}