; Function Attrs: nounwind uwtable
define internal fastcc i32 @BuildTls13HandshakeHmac(ptr noundef readonly captures(address_is_null) %0, ptr noundef %1, ptr noundef %2, ptr noundef writeonly captures(address_is_null) %3) unnamed_addr #0 {
  %5 = alloca [1 x %struct.Hmac], align 16
  call void @llvm.lifetime.start.p0(i64 784, ptr nonnull %5) #11
  %6 = icmp eq ptr %0, null
  %7 = icmp eq ptr %1, null
  %or.cond = or i1 %6, %7
  %8 = icmp eq ptr %2, null
  %or.cond3 = or i1 %or.cond, %8
  br i1 %or.cond3, label %.thread, label %9

9:                                                ; preds = %4
  %10 = getelementptr inbounds nuw i8, ptr %0, i64 724
  %11 = load i8, ptr %10, align 2, !tbaa !46
  switch i8 %11, label %.thread [
    i8 4, label %12
    i8 5, label %17
  ]

12:                                               ; preds = %9
  %13 = getelementptr inbounds nuw i8, ptr %0, i64 128
  %14 = load ptr, ptr %13, align 16, !tbaa !3
  %15 = getelementptr inbounds nuw i8, ptr %14, i64 576
  %16 = tail call i32 @wc_Sha256GetHash(ptr noundef nonnull %15, ptr noundef nonnull %2) #11
  br label %22

17:                                               ; preds = %9
  %18 = getelementptr inbounds nuw i8, ptr %0, i64 128
  %19 = load ptr, ptr %18, align 16, !tbaa !3
  %20 = getelementptr inbounds nuw i8, ptr %19, i64 704
  %21 = tail call i32 @wc_Sha384GetHash(ptr noundef nonnull %20, ptr noundef nonnull %2) #11
  br label %22

22:                                               ; preds = %17, %12
  %.029 = phi i32 [ 7, %17 ], [ 6, %12 ]
  %.028 = phi i32 [ 48, %17 ], [ 32, %12 ]
  %.0 = phi i32 [ %21, %17 ], [ %16, %12 ]
  %.not = icmp eq i32 %.0, 0
  br i1 %.not, label %23, label %.thread

23:                                               ; preds = %22
  %24 = getelementptr inbounds nuw i8, ptr %0, i64 176
  %25 = load ptr, ptr %24, align 16, !tbaa !43
  %26 = getelementptr inbounds nuw i8, ptr %0, i64 1204
  %27 = load i32, ptr %26, align 4, !tbaa !44
  %28 = call i32 @wc_HmacInit(ptr noundef nonnull %5, ptr noundef %25, i32 noundef %27) #11
  %29 = icmp eq i32 %28, 0
  br i1 %29, label %30, label %41

30:                                               ; preds = %23
  %31 = getelementptr inbounds nuw i8, ptr %0, i64 727
  %32 = load i8, ptr %31, align 1, !tbaa !49
  %33 = zext i8 %32 to i32
  %34 = call i32 @wc_HmacSetKey(ptr noundef nonnull %5, i32 noundef %.029, ptr noundef nonnull %1, i32 noundef %33) #11
  %35 = icmp eq i32 %34, 0
  br i1 %35, label %36, label %.thread43

36:                                               ; preds = %30
  %37 = call i32 @wc_HmacUpdate(ptr noundef nonnull %5, ptr noundef nonnull %2, i32 noundef %.028) #11
  %38 = icmp eq i32 %37, 0
  br i1 %38, label %39, label %.thread43

39:                                               ; preds = %36
  %40 = call i32 @wc_HmacFinal(ptr noundef nonnull %5, ptr noundef nonnull %2) #11
  br label %.thread43

.thread43:                                        ; preds = %30, %39, %36
  %.3 = phi i32 [ %40, %39 ], [ %37, %36 ], [ %34, %30 ]
  call void @wc_HmacFree(ptr noundef nonnull %5) #11
  br label %41

41:                                               ; preds = %.thread43, %23
  %.1 = phi i32 [ %.3, %.thread43 ], [ %28, %23 ]
  %.not37 = icmp eq ptr %3, null
  br i1 %.not37, label %.thread, label %42

42:                                               ; preds = %41
  store i32 %.028, ptr %3, align 4, !tbaa !109
  br label %.thread

.thread:                                          ; preds = %9, %41, %42, %22, %4
  %.030 = phi i32 [ -173, %4 ], [ %.0, %22 ], [ %.1, %42 ], [ %.1, %41 ], [ -173, %9 ]
  call void @llvm.lifetime.end.p0(i64 784, ptr nonnull %5) #11
  ret i32 %.030
}